target datalayout = "e-m:e-p270:32:32-p271:32:32-p272:64:64-i64:64-i128:128-f80:128-n8:16:32:64-S128"
target triple = "x86_64-pc-linux-gnu"

%struct.PQExpBufferData = type { ptr, i64, i64 }

@.str.54 = private unnamed_addr constant [3 x i8] c", \00", align 1
@.str.55 = private unnamed_addr constant [4 x i8] c" %s\00", align 1

; Function Attrs: nounwind uwtable
define dso_local void @AppendPlainCommandOption(ptr noundef %0, i1 noundef zeroext %1, ptr noundef %2) #0 {
  %4 = alloca ptr, align 8
  %5 = alloca i8, align 1
  %6 = alloca ptr, align 8
  store ptr %0, ptr %4, align 8
  %7 = zext i1 %1 to i8
  store i8 %7, ptr %5, align 1
  store ptr %2, ptr %6, align 8
  %8 = load ptr, ptr %4, align 8
  %9 = getelementptr inbounds nuw %struct.PQExpBufferData, ptr %8, i32 0, i32 1
  %10 = load i64, ptr %9, align 8
  %11 = icmp ugt i64 %10, 0
  br i1 %11, label %12, label %32

12:                                               ; preds = %3
  %13 = load ptr, ptr %4, align 8
  %14 = getelementptr inbounds nuw %struct.PQExpBufferData, ptr %13, i32 0, i32 0
  %15 = load ptr, ptr %14, align 8
  %16 = load ptr, ptr %4, align 8
  %17 = getelementptr inbounds nuw %struct.PQExpBufferData, ptr %16, i32 0, i32 1
  %18 = load i64, ptr %17, align 8
  %19 = sub i64 %18, 1
  %20 = getelementptr inbounds nuw i8, ptr %15, i64 %19
  %21 = load i8, ptr %20, align 1
  %22 = sext i8 %21 to i32
  %23 = icmp ne i32 %22, 40
  br i1 %23, label %24, label %32

24:                                               ; preds = %12
  %25 = load i8, ptr %5, align 1, !range !7, !noundef !8
  %26 = trunc i8 %25 to i1
  br i1 %26, label %27, label %29

27:                                               ; preds = %24
  %28 = load ptr, ptr %4, align 8
  call void @appendPQExpBufferStr(ptr noundef %28, ptr noundef @.str.54)
  br label %31

29:                                               ; preds = %24
  %30 = load ptr, ptr %4, align 8
  call void @appendPQExpBufferChar(ptr noundef %30, i8 noundef signext 32)
  br label %31

31:                                               ; preds = %29, %27
  br label %32

32:                                               ; preds = %31, %12, %3
  %33 = load ptr, ptr %4, align 8
  %34 = load ptr, ptr %6, align 8
  call void (ptr, ptr, ...) @appendPQExpBuffer(ptr noundef %33, ptr noundef @.str.55, ptr noundef %34)
  ret void
}