; Function Attrs: nounwind uwtable
define dso_local void @AppendPlainCommandOption(ptr noundef %0, i1 noundef zeroext %1, ptr noundef %2) local_unnamed_addr #0 {
  %4 = getelementptr inbounds nuw i8, ptr %0, i64 8
  %5 = load i64, ptr %4, align 8
  %.not = icmp eq i64 %5, 0
  br i1 %.not, label %14, label %6

6:                                                ; preds = %3
  %7 = load ptr, ptr %0, align 8
  %8 = getelementptr i8, ptr %7, i64 %5
  %9 = getelementptr i8, ptr %8, i64 -1
  %10 = load i8, ptr %9, align 1
  %.not7 = icmp eq i8 %10, 40
  br i1 %.not7, label %14, label %11

11:                                               ; preds = %6
  br i1 %1, label %12, label %13

12:                                               ; preds = %11
  tail call void @appendPQExpBufferStr(ptr noundef nonnull %0, ptr noundef nonnull @.str.54) #15
  br label %14

13:                                               ; preds = %11
  tail call void @appendPQExpBufferChar(ptr noundef nonnull %0, i8 noundef signext 32) #15
  br label %14

14:                                               ; preds = %12, %13, %6, %3
  tail call void (ptr, ptr, ...) @appendPQExpBuffer(ptr noundef nonnull %0, ptr noundef nonnull @.str.55, ptr noundef %2) #15
  ret void
}